target datalayout = "e-m:e-p270:32:32-p271:32:32-p272:64:64-i64:64-i128:128-f80:128-n8:16:32:64-S128"
target triple = "x86_64-pc-linux-gnu"

%struct.FT_Service_MultiMastersRec_ = type { ptr, ptr, ptr, ptr, ptr, ptr, ptr, ptr, ptr, ptr, ptr, ptr, ptr, ptr, ptr, ptr, ptr, ptr, ptr }
%struct.TT_FaceRec_ = type { %struct.FT_FaceRec_, %struct.TTC_HeaderRec_, i64, i16, ptr, %struct.TT_Header_, %struct.TT_HoriHeader_, %struct.TT_MaxProfile_, i8, %struct.TT_VertHeader_, i16, %struct.TT_NameTableRec_, %struct.TT_OS2_, %struct.TT_Postscript_, ptr, i64, ptr, ptr, ptr, ptr, ptr, ptr, ptr, ptr, ptr, ptr, ptr, ptr, %struct.TT_Gasp_, %struct.TT_PCLT_, i64, ptr, %struct.TT_Post_NamesRec_, %struct.FT_Palette_Data_, i16, ptr, i8, %struct.FT_Color_, i64, ptr, i64, ptr, i64, ptr, ptr, %struct.FT_Generic_, ptr, i64, i64, i8, i8, ptr, i32, ptr, i32, i32, ptr, i64, i64, i64, ptr, ptr, i64, i32, i64, ptr, ptr, i64, i32, i32, ptr, ptr, i64, i32, i32, i32, %struct.TT_BDFRec_, i64, i64, i64, i64, ptr, ptr, ptr }
%struct.FT_FaceRec_ = type { i64, i64, i64, i64, i64, ptr, ptr, i32, ptr, i32, ptr, %struct.FT_Generic_, %struct.FT_BBox_, i16, i16, i16, i16, i16, i16, i16, i16, ptr, ptr, ptr, ptr, ptr, ptr, %struct.FT_ListRec_, %struct.FT_Generic_, ptr, ptr }
%struct.FT_BBox_ = type { i64, i64, i64, i64 }
%struct.FT_ListRec_ = type { ptr, ptr }
%struct.TTC_HeaderRec_ = type { i64, i64, i64, ptr }
%struct.TT_Header_ = type { i64, i64, i64, i64, i16, i16, [2 x i64], [2 x i64], i16, i16, i16, i16, i16, i16, i16, i16, i16 }
%struct.TT_HoriHeader_ = type { i64, i16, i16, i16, i16, i16, i16, i16, i16, i16, i16, [4 x i16], i16, i16, ptr, ptr }
%struct.TT_MaxProfile_ = type { i64, i16, i16, i16, i16, i16, i16, i16, i16, i16, i16, i16, i16, i16, i16 }
%struct.TT_VertHeader_ = type { i64, i16, i16, i16, i16, i16, i16, i16, i16, i16, i16, [4 x i16], i16, i16, ptr, ptr }
%struct.TT_NameTableRec_ = type { i16, i32, i32, ptr, i32, ptr, ptr }
%struct.TT_OS2_ = type { i16, i16, i16, i16, i16, i16, i16, i16, i16, i16, i16, i16, i16, i16, i16, i16, [10 x i8], i64, i64, i64, i64, [4 x i8], i16, i16, i16, i16, i16, i16, i16, i16, i64, i64, i16, i16, i16, i16, i16, i16, i16 }
%struct.TT_Postscript_ = type { i64, i64, i16, i16, i64, i64, i64, i64, i64 }
%struct.TT_Gasp_ = type { i16, i16, ptr }
%struct.TT_PCLT_ = type { i64, i64, i16, i16, i16, i16, i16, i16, [16 x i8], [8 x i8], [6 x i8], i8, i8, i8, i8 }
%struct.TT_Post_NamesRec_ = type { i8, i16, i16, ptr, ptr }
%struct.FT_Palette_Data_ = type { i16, ptr, ptr, i16, ptr }
%struct.FT_Color_ = type { i8, i8, i8, i8 }
%struct.FT_Generic_ = type { ptr, ptr }
%struct.TT_BDFRec_ = type { ptr, ptr, ptr, i64, i32, i8 }

; Function Attrs: nounwind uwtable
define internal void @cff_done_blend(ptr noundef %0) #0 {
  %2 = alloca ptr, align 8
  %3 = alloca ptr, align 8
  %4 = alloca ptr, align 8
  store ptr %0, ptr %2, align 8
  %5 = load ptr, ptr %2, align 8
  store ptr %5, ptr %3, align 8
  %6 = load ptr, ptr %3, align 8
  %7 = getelementptr inbounds %struct.TT_FaceRec_, ptr %6, i32 0, i32 24
  %8 = load ptr, ptr %7, align 8
  store ptr %8, ptr %4, align 8
  %9 = load ptr, ptr %4, align 8
  %10 = icmp ne ptr %9, null
  br i1 %10, label %11, label %16

11:                                               ; preds = %1
  %12 = load ptr, ptr %4, align 8
  %13 = getelementptr inbounds %struct.FT_Service_MultiMastersRec_, ptr %12, i32 0, i32 18
  %14 = load ptr, ptr %13, align 8
  %15 = load ptr, ptr %2, align 8
  call void %14(ptr noundef %15)
  br label %16

16:                                               ; preds = %11, %1
  ret void
}