; Function Attrs: nounwind uwtable
define internal void @cff_done_blend(ptr noundef %0) #4 {
  %2 = getelementptr inbounds i8, ptr %0, i64 896
  %3 = load ptr, ptr %2, align 8
  %.not = icmp eq ptr %3, null
  br i1 %.not, label %7, label %4

4:                                                ; preds = %1
  %5 = getelementptr inbounds i8, ptr %3, i64 144
  %6 = load ptr, ptr %5, align 8
  tail call void %6(ptr noundef nonnull %0) #20
  br label %7

7:                                                ; preds = %4, %1
  ret void
}